Hatari CPU profile (Hatari v2.6.1)
Cycles/second:	8021247
Field names:	Executed instructions, Used cycles, Instruction cache misses, Data cache hits
Field regexp:	^\$?([0-9A-Fa-f]+) .*% \(([^)]*)\)$
ST_RAM:		0x000000-0x100000
ROM_TOS:	0xe00000-0xe00124
CARTRIDGE:	0xfa0000-0xfc0000
# disassembly with profile data: <instructions percentage>% (<sum of instructions>, <sum of cycles>, <sum of i-cache misses>, <sum of d-cache hits>)
00001100 4267                     clr.w -(a7) == $00017ff4 [003e]    0.00% (1, 16, 0, 0)
00001102 4879 0000 15da           pea.l $000015da                    0.00% (1, 20, 0, 0)
00001108 3f3c 003c                move.w #$003c,-(a7) == $00017ff4 [003e] 0.00% (1, 12, 0, 0)
0000110c 4e41                     trap #$01                          0.00% (1, 36, 0, 0)
0000110e 508f                     addaq.l #$08,a7                    0.00% (1, 8, 0, 0)
00001110 33c0 0000 1608           move.w d0,$00001608 [0040]         0.00% (1, 16, 0, 0)
00001116 49f9 0000 12ca           lea.l $000012ca tests,a4           0.00% (1, 12, 0, 0)
main_loop:
0000111c 2f1c                     move.l (a4)+ == $0000134a [00000000],-(a7) == $00017ff2 [1142003e] 0.00% (16, 320, 0, 0)
0000111e 6100 003a                bsr.w #$003a print == $0000115a    0.00% (16, 320, 0, 0)
00001122 588f                     addaq.l #$04,a7                    0.00% (16, 128, 0, 0)
00001124 4879 0000 15e6           pea.l $000015e6                    0.00% (16, 320, 0, 0)
0000112a 6100 002e                bsr.w #$002e print == $0000115a    0.00% (16, 320, 0, 0)
0000112e 588f                     addaq.l #$04,a7                    0.00% (16, 128, 0, 0)
00001130 2f1c                     move.l (a4)+ == $0000134a [00000000],-(a7) == $00017ff2 [1142003e] 0.00% (16, 320, 0, 0)
00001132 6100 0226                bsr.w #$0226 run_test == $0000135a 0.00% (16, 320, 0, 0)
00001136 588f                     addaq.l #$04,a7                    0.00% (16, 128, 0, 0)
00001138 4879 0000 15ea           pea.l $000015ea                    0.00% (16, 320, 0, 0)
0000113e 6100 001a                bsr.w #$001a print == $0000115a    0.00% (16, 320, 0, 0)
00001142 588f                     addaq.l #$04,a7                    0.00% (16, 128, 0, 0)
00001144 4a94                     tst.l (a4) == $0000134a [00000000] 0.00% (16, 192, 0, 0)
00001146 66d4                     bne.b #$d4 == $0000111c (F)        0.00% (16, 188, 0, 0)
00001148 3f39 0000 1608           move.w $00001608 [0040],-(a7) == $00017ff4 [003e] 0.00% (1, 20, 0, 0)
0000114e 3f3c 003e                move.w #$003e,-(a7) == $00017ff4 [003e] 0.00% (1, 12, 0, 0)
00001152 4e41                     trap #$01                          0.00% (1, 36, 0, 0)
00001154 588f                     addaq.l #$04,a7                    0.00% (1, 8, 0, 0)
00001156 4267                     clr.w -(a7) == $00017ff4 [003e]    0.00% (1, 16, 0, 0)
[...]
print:
0000115a 2f2f 0004                move.l ($0004,a7) == $00017ffa [00000000],-(a7) == $00017ff2 [1142003e] 0.01% (48, 1152, 0, 0)
0000115e 3f3c 0009                move.w #$0009,-(a7) == $00017ff4 [003e] 0.01% (48, 576, 0, 0)
00001162 4e41                     trap #$01                          0.01% (48, 1728, 0, 0)
00001164 5c8f                     addaq.l #$06,a7                    0.01% (48, 384, 0, 0)
00001166 70ff                     moveq #$ff,d0                      0.01% (48, 192, 0, 0)
00001168 206f 0004                movea.l ($0004,a7) == $00017ffa [00000000],a0 0.01% (48, 768, 0, 0)
strlenloop:
0000116c 5280                     addq.l #$01,d0                     0.09% (485, 3880, 0, 0)
0000116e 4a18                     tst.b (a0)+ == $000015f9 [00]      0.09% (485, 3880, 0, 0)
00001170 66fa                     bne.b #$fa == $0000116c (F)        0.09% (485, 5628, 0, 0)
00001172 2f2f 0004                move.l ($0004,a7) == $00017ffa [00000000],-(a7) == $00017ff2 [1142003e] 0.01% (48, 1152, 0, 0)
00001176 2f00                     move.l d0,-(a7) == $00017ff2 [1142003e] 0.01% (48, 576, 0, 0)
00001178 3f39 0000 1608           move.w $00001608 [0040],-(a7) == $00017ff4 [003e] 0.01% (48, 960, 0, 0)
0000117e 3f3c 0040                move.w #$0040,-(a7) == $00017ff4 [003e] 0.01% (48, 576, 0, 0)
00001182 4e41                     trap #$01                          0.01% (48, 1728, 0, 0)
00001184 4fef 000c                lea.l ($000c,a7) == $00018002,a7   0.01% (48, 384, 0, 0)
out:
00001188 4e75                     rts  == $000000e0                  0.01% (50, 800, 0, 0)
[...]
test_nop:
00001192 4e71                     nop                                0.00% (1, 4, 0, 0)
00001194 4e75                     rts  == $000000e0                  0.00% (1, 16, 0, 0)
[...]
test_2nop:
000011a0 4e71                     nop                                0.00% (1, 4, 0, 0)
000011a2 4e71                     nop                                0.00% (1, 4, 0, 0)
000011a4 4e75                     rts  == $000000e0                  0.00% (1, 16, 0, 0)
[...]
test_lsl1:
000011ae 7000                     moveq #$00,d0                      0.00% (1, 4, 0, 0)
000011b0 e1a9                     lsl.l d0,d1                        0.00% (1, 8, 0, 0)
000011b2 4e75                     rts  == $000000e0                  0.00% (1, 16, 0, 0)
[...]
test_lsl2:
000011bc 7006                     moveq #$06,d0                      0.00% (1, 4, 0, 0)
000011be e1a9                     lsl.l d0,d1                        0.00% (1, 20, 0, 0)
000011c0 4e75                     rts  == $000000e0                  0.00% (1, 16, 0, 0)
[...]
test_exg_dbra1:
000011d0 7400                     moveq #$00,d2                      0.00% (1, 4, 0, 0)
000011d2 4e71                     nop                                0.00% (1, 4, 0, 0)
000011d4 c141                     exg.l d0,d1                        0.00% (1, 6, 0, 0)
000011d6 51ca ffb0                dbf.w d2,#$ffb0 == $00001188 (F)   0.00% (1, 14, 0, 0)
000011da 4e75                     rts  == $000000e0                  0.00% (1, 16, 0, 0)
[...]
test_exg_dbra2:
000011ea 7400                     moveq #$00,d2                      0.00% (1, 4, 0, 0)
000011ec c141                     exg.l d0,d1                        0.00% (1, 6, 0, 0)
000011ee 4e71                     nop                                0.00% (1, 6, 0, 0)
000011f0 51ca ff96                dbf.w d2,#$ff96 == $00001188 (F)   0.00% (1, 16, 0, 0)
000011f4 4e75                     rts  == $000000e0                  0.00% (1, 16, 0, 0)
[...]
test_exg_move1:
00001204 4e71                     nop                                0.00% (1, 4, 0, 0)
00001206 c141                     exg.l d0,d1                        0.00% (1, 6, 0, 0)
00001208 1220                     move.b -(a0) == $000015f8 [00],d1  0.00% (1, 10, 0, 0)
0000120a 4e75                     rts  == $000000e0                  0.00% (1, 16, 0, 0)
[...]
test_exg_move2:
0000121a c141                     exg.l d0,d1                        0.00% (1, 6, 0, 0)
0000121c 4e71                     nop                                0.00% (1, 6, 0, 0)
0000121e 1220                     move.b -(a0) == $000015f8 [00],d1  0.00% (1, 12, 0, 0)
00001220 4e75                     rts  == $000000e0                  0.00% (1, 16, 0, 0)
[...]
test_asr_add1:
0000122e 7002                     moveq #$02,d0                      0.00% (1, 4, 0, 0)
00001230 4e71                     nop                                0.00% (1, 4, 0, 0)
00001232 e061                     asr.w d0,d1                        0.00% (1, 10, 0, 0)
00001234 d260                     add.w -(a0) == $000015f7 [0a00],d1 0.00% (1, 10, 0, 0)
00001236 4e75                     rts  == $000000e0                  0.00% (1, 16, 0, 0)
[...]
test_asr_add2:
00001244 7002                     moveq #$02,d0                      0.00% (1, 4, 0, 0)
00001246 e061                     asr.w d0,d1                        0.00% (1, 10, 0, 0)
00001248 4e71                     nop                                0.00% (1, 6, 0, 0)
0000124a d260                     add.w -(a0) == $000015f7 [0a00],d1 0.00% (1, 12, 0, 0)
0000124c 4e75                     rts  == $000000e0                  0.00% (1, 16, 0, 0)
[...]
test_cmp_beq1:
0000125a 4e71                     nop                                0.00% (1, 4, 0, 0)
0000125c b080                     cmp.l d0,d0                        0.00% (1, 6, 0, 0)
0000125e 6000 ff28                bra.w #$ff28 out == $00001188 (T)  0.00% (1, 10, 0, 0)
[...]
test_cmp_beq2:
0000126e b080                     cmp.l d0,d0                        0.00% (1, 6, 0, 0)
00001270 4e71                     nop                                0.00% (1, 6, 0, 0)
00001272 6000 ff14                bra.w #$ff14 out == $00001188 (T)  0.00% (1, 12, 0, 0)
[...]
test_sub_move1:
00001284 4242                     clr.w d2                           0.00% (1, 4, 0, 0)
00001286 9090                     sub.l (a0) == $000015f9 [00000200],d0 0.00% (1, 14, 0, 0)
00001288 3230 2000                move.w ($00,a0,d2.w) == $0000167d [0000],d1 0.00% (1, 14, 0, 0)
0000128c 4e75                     rts  == $000000e0                  0.00% (1, 16, 0, 0)
[...]
test_sub_move2:
0000129c 9090                     sub.l (a0) == $000015f9 [00000200],d0 0.00% (1, 14, 0, 0)
0000129e 4242                     clr.w d2                           0.00% (1, 6, 0, 0)
000012a0 3230 2000                move.w ($00,a0,d2.w) == $0000167d [0000],d1 0.00% (1, 16, 0, 0)
000012a4 4e75                     rts  == $000000e0                  0.00% (1, 16, 0, 0)
[...]
test_move_820a:
000012b2 1038 820a                move.b $ffff820a.w,d0              0.00% (1, 12, 0, 0)
000012b6 4e75                     rts  == $000000e0                  0.00% (1, 16, 0, 0)
[...]
test_move_8800:
000012c4 1038 8800                move.b $ffff8800.w,d0              0.00% (1, 16, 0, 0)
000012c8 4e75                     rts  == $000000e0                  0.00% (1, 16, 0, 0)
[...]
testinit:
00001352 207c 0000 164a           movea.l #$0000164a,a0              0.00% (16, 192, 0, 0)
00001358 4e75                     rts  == $000000e0                  0.00% (16, 256, 0, 0)
run_test:
0000135a 202f 0004                move.l ($0004,a7) == $00017ffa [00000000],d0 0.00% (16, 256, 0, 0)
0000135e 48e7 1f1e                movem.l d3-d7/a3-a6,-(a7) == $00017ff2 0.00% (16, 1280, 0, 0)
00001362 2a40                     movea.l d0,a5                      0.00% (16, 64, 0, 0)
00001364 4879 0000 0000           pea.l $00000000                    0.00% (16, 320, 0, 0)
0000136a 3f3c 0020                move.w #$0020,-(a7) == $00017ff4 [003e] 0.00% (16, 192, 0, 0)
0000136e 4e41                     trap #$01                          0.00% (16, 576, 0, 0)
00001370 5c8f                     addaq.l #$06,a7                    0.00% (16, 128, 0, 0)
00001372 23c0 0000 15fa           move.l d0,$000015fa [00020000]     0.00% (16, 320, 0, 0)
00001378 23f9 0000 0010 0000 15fe move.l $00000010 [00e000e2],$000015fe [00e000e2] 0.00% (16, 576, 0, 0)
00001382 31fc 0765 8240           move.w #$0765,$ffff8240.w          0.00% (16, 256, 0, 0)
00001388 11fc 0002 820a           move.b #$02,$ffff820a.w            0.00% (16, 256, 0, 0)
loop:
0000138e 23f9 0000 0070 0000 1602 move.l $00000070 [00e000fa],$00001602 [00e000fa] 0.00% (16, 576, 0, 0)
00001398 23fc 0000 15d0 0000 0070 move.l #$000015d0,$00000070 [00e000fa] 0.00% (16, 448, 0, 0)
000013a2 33fc 0000 0000 1606      move.w #$0000,$00001606 [0001]     0.00% (16, 320, 0, 0)
000013aa 4e72 2300                stop #$2300                       89.87% (495658, 1983580, 0, 0)
000013ae 4a79 0000 1606           tst.w $00001606 [0001]             0.00% (16, 256, 0, 0)
000013b4 67d8                     beq.b #$d8 == $0000138e (T)        0.00% (16, 128, 0, 0)
000013b6 23f9 0000 1602 0000 0070 move.l $00001602 [00e000fa],$00000070 [00e000fa] 0.00% (16, 576, 0, 0)
000013c0 46fc 2700                move.w #$2700,sr                   0.00% (16, 256, 0, 0)
000013c4 4eb9 0000 1352           jsr $00001352 testinit             0.00% (16, 320, 0, 0)
000013ca 2f08                     move.l a0,-(a7) == $00017ff2 [1142003e] 0.00% (16, 192, 0, 0)
000013cc 3f00                     move.w d0,-(a7) == $00017ff4 [003e] 0.00% (16, 128, 0, 0)
000013ce 41f8 8209                lea.l $ffff8209.w,a0               0.00% (16, 128, 0, 0)
000013d2 7000                     moveq #$00,d0                      0.00% (16, 64, 0, 0)
000013d4 1010                     move.b (a0) == $000015f9 [00],d0   4.65% (25622, 204976, 0, 0)
000013d6 67fc                     beq.b #$fc == $000013d4 (T)        4.65% (25622, 307400, 0, 0)
000013d8 4640                     not.w d0                           0.00% (16, 64, 0, 0)
000013da e068                     lsr.w d0,d0                        0.00% (16, 1940, 0, 0)
000013dc 303c 0080                move.w #$0080,d0                   0.00% (16, 128, 0, 0)
000013e0 907a 01a4                sub.w ($01a4,pc) == $00001586 [0000] nopno,d0 0.00% (16, 192, 0, 0)
000013e4 d040                     add.w d0,d0                        0.00% (16, 64, 0, 0)
000013e6 4efb 0002                jmp ($02,pc,d0.w=000013ea) == $000013ea 0.00% (16, 256, 0, 0)
[...]
000014ea 301f                     move.w (a7)+ == $00017ff6 [0000],d0 0.00% (16, 128, 0, 0)
000014ec 205f                     movea.l (a7)+ == $00017ff6 [000000e0],a0 0.00% (16, 192, 0, 0)
000014ee 4e95                     jsr (a5) == $00000000              0.00% (16, 256, 0, 0)
continue:
000014f0 1038 8209                move.b $ffff8209.w,d0              0.00% (16, 192, 0, 0)
000014f4 1238 8207                move.b $ffff8207.w,d1              0.00% (16, 192, 0, 0)
000014f8 1438 8205                move.b $ffff8205.w,d2              0.00% (16, 192, 0, 0)
000014fc 1638 8209                move.b $ffff8209.w,d3              0.00% (16, 192, 0, 0)
00001500 9600                     sub.b d0,d3                        0.00% (16, 64, 0, 0)
00001502 b63c 0012                cmp.b #$12,d3                      0.00% (16, 128, 0, 0)
00001506 6720                     beq.b #$20 == $00001528 (T)        0.00% (16, 192, 0, 0)
[...]
00001528 31fc 0770 8240           move.w #$0770,$ffff8240.w          0.00% (16, 256, 0, 0)
0000152e 46fc 2300                move.w #$2300,sr                   0.00% (16, 256, 0, 0)
00001532 c0bc 0000 00ff           and.l #$000000ff,d0                0.00% (16, 256, 0, 0)
00001538 c2bc 0000 00ff           and.l #$000000ff,d1                0.00% (16, 256, 0, 0)
0000153e c4bc 0000 00ff           and.l #$000000ff,d2                0.00% (16, 256, 0, 0)
00001544 e14a                     lsl.w #$08,d2                      0.00% (16, 352, 0, 0)
00001546 d441                     add.w d1,d2                        0.00% (16, 96, 0, 0)
00001548 e18a                     lsl.l #$08,d2                      0.00% (16, 384, 0, 0)
0000154a d440                     add.w d0,d2                        0.00% (16, 64, 0, 0)
0000154c 94b9 0000 044e           sub.l $0000044e [00000000],d2      0.00% (16, 352, 0, 0)
00001552 84fc 00a0                divu.w #$00a0,d2                   0.00% (16, 2272, 0, 0)
00001556 2002                     move.l d2,d0                       0.00% (16, 64, 0, 0)
00001558 c0fc 0100                mulu.w #$0100,d0                   0.00% (16, 704, 0, 0)
0000155c 4842                     swap.w d2                          0.00% (16, 64, 0, 0)
0000155e d042                     add.w d2,d0                        0.00% (16, 64, 0, 0)
00001560 907a 0024                sub.w ($0024,pc) == $00001586 [0000] nopno,d0 0.00% (16, 192, 0, 0)
00001564 907a 0020                sub.w ($0020,pc) == $00001586 [0000] nopno,d0 0.00% (16, 192, 0, 0)
00001568 d040                     add.w d0,d0                        0.00% (16, 64, 0, 0)
0000156a 907c 00f8                sub.w #$00f8,d0                    0.00% (16, 128, 0, 0)
0000156e 6000 0018                bra.w #$0018 getouttahere == $00001588 (T) 0.00% (16, 192, 0, 0)
[...]
getouttahere:
00001588 46fc 2300                move.w #$2300,sr                   0.00% (16, 256, 0, 0)
0000158c 11fc 0002 820a           move.b #$02,$ffff820a.w            0.00% (16, 256, 0, 0)
00001592 31fc 0777 8240           move.w #$0777,$ffff8240.w          0.00% (16, 256, 0, 0)
00001598 41fa 0055                lea.l ($0055,pc) == $000015ef,a0   0.00% (16, 128, 0, 0)
0000159c 7e04                     moveq #$04,d7                      0.00% (16, 64, 0, 0)
0000159e 80fc 000a                divu.w #$000a,d0                   0.01% (80, 11200, 0, 0)
000015a2 4840                     swap.w d0                          0.01% (80, 320, 0, 0)
000015a4 d07c 0030                add.w #$0030,d0                    0.01% (80, 640, 0, 0)
000015a8 1100                     move.b d0,-(a0) == $000015f8 [00]  0.01% (80, 640, 0, 0)
000015aa 4240                     clr.w d0                           0.01% (80, 320, 0, 0)
000015ac 4840                     swap.w d0                          0.01% (80, 320, 0, 0)
000015ae 51cf ffee                dbf.w d7,#$ffee == $0000159e (F)   0.01% (80, 1024, 0, 0)
000015b2 23f9 0000 15fe 0000 0010 move.l $000015fe [00e000e2],$00000010 [00e000e2] 0.00% (16, 576, 0, 0)
000015bc 2f39 0000 15fa           move.l $000015fa [00020000],-(a7) == $00017ff2 [1142003e] 0.00% (16, 448, 0, 0)
000015c2 3f3c 0020                move.w #$0020,-(a7) == $00017ff4 [003e] 0.00% (16, 192, 0, 0)
000015c6 4e41                     trap #$01                          0.00% (16, 576, 0, 0)
000015c8 5c8f                     addaq.l #$06,a7                    0.00% (16, 128, 0, 0)
000015ca 4cdf 78f8                movem.l (a7)+ == $00017ff6,d3-d7/a3-a6 0.00% (16, 1344, 0, 0)
000015ce 4e75                     rts  == $000000e0                  0.00% (16, 256, 0, 0)
vblhandler:
000015d0 33fc 0001 0000 1606      move.w #$0001,$00001606 [0001]     0.00% (16, 320, 0, 0)
000015d8 4e73                     rte  == $00e00000                  0.00% (16, 320, 0, 0)
[...]
00fa002a 0008                     illegal                            0.02% (130, 520, 0, 0)
00fa002c 690a                     bvs.b #$0a == $00fa0038 (F)        0.02% (130, 1040, 0, 0)
00fa002e 6602                     bne.b #$02 == $00fa0032 (F)        0.02% (130, 1040, 0, 0)
00fa0030 4e73                     rte  == $00e00000                  0.02% (130, 2600, 0, 0)
# <callee>: <caller1> = <calls> <types>[ <inclusive/totals>[ <exclusive/totals>]], <caller2> ..., <callee name>
# types: u = unknown PC change, n = PC moved to next instruction, b = branch/jump, s = subroutine call, r = return from subroutine, e = exception, x = return from exception
# totals: calls/instructions/cycles/i-misses/d-hits
0x111c: 0x1146 = 15 b, 0x1116 = 1 n, main_loop
0x115a: 0x111e = 16 s 16/879/9932 16/879/9932, 0x112a = 16 s 16/528/6656 16/528/6656, 0x113e = 16 s 16/1056/11584 16/1056/11584, print
0x116c: 0x1170 = 437 b, 0x1168 = 48 n, strlenloop
0x1188: 0x1184 = 48 n, 0x125e = 1 b, 0x1272 = 1 b, out
0x1192: 0x14ee = 1 s 1/2/20 1/2/20, test_nop
0x11a0: 0x14ee = 1 s 1/3/24 1/3/24, test_2nop
0x11ae: 0x14ee = 1 s 1/3/28 1/3/28, test_lsl1
0x11bc: 0x14ee = 1 s 1/3/40 1/3/40, test_lsl2
0x11d0: 0x14ee = 1 s 1/5/44 1/5/44, test_exg_dbra1
0x11ea: 0x14ee = 1 s 1/5/48 1/5/48, test_exg_dbra2
0x1204: 0x14ee = 1 s 1/4/36 1/4/36, test_exg_move1
0x121a: 0x14ee = 1 s 1/4/40 1/4/40, test_exg_move2
0x122e: 0x14ee = 1 s 1/5/44 1/5/44, test_asr_add1
0x1244: 0x14ee = 1 s 1/5/48 1/5/48, test_asr_add2
0x125a: 0x14ee = 1 s 1/4/36 1/4/36, test_cmp_beq1
0x126e: 0x14ee = 1 s 1/4/40 1/4/40, test_cmp_beq2
0x1284: 0x14ee = 1 s 1/4/48 1/4/48, test_sub_move1
0x129c: 0x14ee = 1 s 1/4/52 1/4/52, test_sub_move2
0x12b2: 0x14ee = 1 s 1/2/28 1/2/28, test_move_820a
0x12c4: 0x14ee = 1 s 1/2/32 1/2/32, test_move_8800
0x1352: 0x13c4 = 16 s 16/32/448 16/32/448, testinit
0x135a: 0x1132 = 16 s 64/548849/2536328 16/548726/2534632, run_test
0x138e: 0x1388 = 16 n, loop
0x14f0: 0x14ee = 16 n, continue
0x1588: 0x156e = 16 b, getouttahere
0x15d0: 0x13aa = 16 e 16/32/640 16/32/640, vblhandler
